target datalayout = "e-m:e-p270:32:32-p271:32:32-p272:64:64-i64:64-i128:128-f80:128-n8:16:32:64-S128"
target triple = "x86_64-pc-linux-gnu"

@stderr = external global ptr, align 8
@.str.31 = private unnamed_addr constant [1 x i8] zeroinitializer, align 1
@stdout = external global ptr, align 8

; Function Attrs: nounwind uwtable
define internal void @usage(i32 noundef %0) #0 {
  %2 = alloca i32, align 4
  %3 = alloca ptr, align 8
  %4 = alloca ptr, align 8
  %5 = alloca ptr, align 8
  store i32 %0, ptr %2, align 4, !tbaa !10
  call void @llvm.lifetime.start.p0(i64 8, ptr %3) #15
  %6 = call ptr @cliVersion()
  store ptr %6, ptr %3, align 8, !tbaa !5
  call void @llvm.lifetime.start.p0(i64 8, ptr %4) #15
  %7 = load i32, ptr %2, align 4, !tbaa !10
  %8 = icmp ne i32 %7, 0
  br i1 %8, label %9, label %11

9:                                                ; preds = %1
  %10 = load ptr, ptr @stderr, align 8, !tbaa !12
  br label %13

11:                                               ; preds = %1
  %12 = load ptr, ptr @stdout, align 8, !tbaa !12
  br label %13

13:                                               ; preds = %11, %9
  %14 = phi ptr [ %10, %9 ], [ %12, %11 ]
  store ptr %14, ptr %4, align 8, !tbaa !12
  call void @llvm.lifetime.start.p0(i64 8, ptr %5) #15
  store ptr @.str.31, ptr %5, align 8, !tbaa !5
  %15 = load ptr, ptr %4, align 8, !tbaa !12
  %16 = load ptr, ptr %3, align 8, !tbaa !5
  %17 = load ptr, ptr %5, align 8, !tbaa !5
  %18 = call i32 (ptr, ptr, ...) @fprintf(ptr noundef %15, ptr noundef @.str.587, ptr noundef %16, ptr noundef %17) #15
  %19 = load ptr, ptr %4, align 8, !tbaa !12
  %20 = call i32 (ptr, ptr, ...) @fprintf(ptr noundef %19, ptr noundef @.str.588, i32 noundef 30) #15
  %21 = load ptr, ptr %4, align 8, !tbaa !12
  %22 = call i32 (ptr, ptr, ...) @fprintf(ptr noundef %21, ptr noundef @.str.589) #15
  %23 = load ptr, ptr %4, align 8, !tbaa !12
  %24 = call i32 (ptr, ptr, ...) @fprintf(ptr noundef %23, ptr noundef @.str.590) #15
  %25 = load ptr, ptr %3, align 8, !tbaa !5
  call void @hi_sdsfree(ptr noundef %25)
  %26 = load i32, ptr %2, align 4, !tbaa !10
  call void @exit(i32 noundef %26) #20
  unreachable
}