; Function Attrs: noreturn nounwind uwtable
define internal fastcc void @usage(i32 noundef range(i32 0, 2) %0) unnamed_addr #23 {
  %2 = tail call ptr @cliVersion() #33
  %.not = icmp eq i32 %0, 0
  %3 = load ptr, ptr @stderr, align 8
  %4 = load ptr, ptr @stdout, align 8
  %5 = select i1 %.not, ptr %4, ptr %3
  %6 = tail call i32 (ptr, ptr, ...) @fprintf(ptr noundef %5, ptr noundef nonnull @.str.587, ptr noundef %2, ptr noundef nonnull @.str.31) #33
  %7 = tail call i32 (ptr, ptr, ...) @fprintf(ptr noundef %5, ptr noundef nonnull @.str.588, i32 noundef 30) #33
  %8 = tail call i64 @fwrite(ptr nonnull @.str.589, i64 2403, i64 1, ptr %5)
  %9 = tail call i64 @fwrite(ptr nonnull @.str.590, i64 846, i64 1, ptr %5)
  tail call void @hi_sdsfree(ptr noundef %2) #33
  tail call void @exit(i32 noundef %0) #41
  unreachable
}